target datalayout = "e-m:e-p270:32:32-p271:32:32-p272:64:64-i64:64-i128:128-f80:128-n8:16:32:64-S128"
target triple = "x86_64-pc-linux-gnu"

%struct._zend_refcounted = type { %struct._zend_refcounted_h }
%struct._zend_refcounted_h = type { i32, %union.anon }
%union.anon = type { i32 }
%struct._zval_struct = type { %union._zend_value, %union.anon.0, %union.anon.3 }
%union._zend_value = type { i64 }
%union.anon.0 = type { i32 }
%union.anon.3 = type { i32 }
%struct.anon.1 = type { i8, i8, %union.anon.2 }
%union.anon.2 = type { i16 }

@.str = private unnamed_addr constant [65 x i8] c"Internal zval's can't be arrays, objects, resources or reference\00", align 1

; Function Attrs: nounwind uwtable
define void @zval_internal_ptr_dtor(ptr noundef %0) #0 {
  %2 = alloca ptr, align 8
  %3 = alloca ptr, align 8
  %4 = alloca ptr, align 8
  %5 = alloca ptr, align 8
  %6 = alloca ptr, align 8
  store ptr %0, ptr %4, align 8
  %7 = load ptr, ptr %4, align 8
  %8 = getelementptr inbounds %struct._zval_struct, ptr %7, i32 0, i32 1
  %9 = getelementptr inbounds %struct.anon.1, ptr %8, i32 0, i32 1
  %10 = load i8, ptr %9, align 1
  %11 = zext i8 %10 to i32
  %12 = icmp ne i32 %11, 0
  br i1 %12, label %13, label %39

13:                                               ; preds = %1
  %14 = load ptr, ptr %4, align 8
  %15 = getelementptr inbounds %struct._zval_struct, ptr %14, i32 0, i32 0
  %16 = load ptr, ptr %15, align 8
  store ptr %16, ptr %5, align 8
  %17 = load ptr, ptr %5, align 8
  %18 = getelementptr inbounds %struct._zend_refcounted, ptr %17, i32 0, i32 0
  store ptr %18, ptr %3, align 8
  %19 = load ptr, ptr %3, align 8
  %20 = load i32, ptr %19, align 4
  %21 = icmp ugt i32 %20, 0
  call void @llvm.assume(i1 %21)
  %22 = load ptr, ptr %3, align 8
  %23 = load i32, ptr %22, align 4
  %24 = add i32 %23, -1
  store i32 %24, ptr %22, align 4
  %25 = icmp eq i32 %24, 0
  br i1 %25, label %26, label %38

26:                                               ; preds = %13
  %27 = load ptr, ptr %4, align 8
  store ptr %27, ptr %2, align 8
  %28 = load ptr, ptr %2, align 8
  %29 = getelementptr inbounds %struct._zval_struct, ptr %28, i32 0, i32 1
  %30 = load i8, ptr %29, align 8
  %31 = zext i8 %30 to i32
  %32 = icmp eq i32 %31, 6
  br i1 %32, label %33, label %36

33:                                               ; preds = %26
  %34 = load ptr, ptr %5, align 8
  store ptr %34, ptr %6, align 8
  %35 = load ptr, ptr %6, align 8
  call void @free(ptr noundef %35) #8
  br label %37

36:                                               ; preds = %26
  call void (i32, ptr, ...) @zend_error_noreturn(i32 noundef 16, ptr noundef @.str) #9
  unreachable

37:                                               ; preds = %33
  br label %38

38:                                               ; preds = %37, %13
  br label %39

39:                                               ; preds = %38, %1
  ret void
}