; Function Attrs: nounwind uwtable
define void @zval_internal_ptr_dtor(ptr nocapture noundef readonly %0) local_unnamed_addr #0 {
  %2 = getelementptr inbounds i8, ptr %0, i64 8
  %3 = getelementptr inbounds i8, ptr %0, i64 9
  %4 = load i8, ptr %3, align 1
  %.not = icmp eq i8 %4, 0
  br i1 %.not, label %16, label %5

5:                                                ; preds = %1
  %6 = load ptr, ptr %0, align 8
  %7 = load i32, ptr %6, align 4
  %8 = icmp ne i32 %7, 0
  tail call void @llvm.assume(i1 %8)
  %9 = add i32 %7, -1
  store i32 %9, ptr %6, align 4
  %10 = icmp eq i32 %9, 0
  br i1 %10, label %11, label %16

11:                                               ; preds = %5
  %12 = load i8, ptr %2, align 8
  %13 = icmp eq i8 %12, 6
  br i1 %13, label %14, label %15

14:                                               ; preds = %11
  tail call void @free(ptr noundef nonnull %6) #9
  br label %16

15:                                               ; preds = %11
  tail call void (i32, ptr, ...) @zend_error_noreturn(i32 noundef 16, ptr noundef nonnull @.str) #10
  unreachable

16:                                               ; preds = %5, %14, %1
  ret void
}